target datalayout = "e-m:e-p270:32:32-p271:32:32-p272:64:64-i64:64-i128:128-f80:128-n8:16:32:64-S128"
target triple = "x86_64-pc-linux-gnu"

%struct.Abc_Aig_t_ = type { ptr, ptr, ptr, i32, i32, ptr, ptr, ptr, ptr, ptr, ptr, ptr, i32, i32, i32, i32 }
%struct.Abc_Obj_t_ = type { ptr, ptr, i32, i32, %struct.Vec_Int_t_, %struct.Vec_Int_t_, %union.anon, %union.anon.0 }
%struct.Vec_Int_t_ = type { i32, i32, ptr }
%union.anon = type { ptr }
%union.anon.0 = type { ptr }
%struct.Abc_Ntk_t_ = type { i32, i32, ptr, ptr, ptr, ptr, ptr, ptr, ptr, ptr, ptr, ptr, ptr, [11 x i32], i32, i32, i32, i32, ptr, i32, ptr, ptr, i32, i32, i32, double, i32, %struct.Vec_Int_t_, ptr, ptr, ptr, ptr, ptr, float, i32, ptr, ptr, ptr, ptr, ptr, ptr, ptr, ptr, ptr, ptr, ptr, ptr, ptr, ptr, ptr, ptr, ptr, ptr, ptr, ptr, ptr }
%struct.Vec_Ptr_t_ = type { i32, i32, ptr }
%struct.Vec_Vec_t_ = type { i32, i32, ptr }

; Function Attrs: nounwind uwtable
define internal ptr @Vec_VecAlloc(i32 noundef %0) #0 {
  %2 = alloca i32, align 4
  %3 = alloca ptr, align 8
  store i32 %0, ptr %2, align 4
  %4 = call noalias ptr @malloc(i64 noundef 16) #6
  store ptr %4, ptr %3, align 8
  %5 = load i32, ptr %2, align 4
  %6 = icmp sgt i32 %5, 0
  br i1 %6, label %7, label %11

7:                                                ; preds = %1
  %8 = load i32, ptr %2, align 4
  %9 = icmp slt i32 %8, 8
  br i1 %9, label %10, label %11

10:                                               ; preds = %7
  store i32 8, ptr %2, align 4
  br label %11

11:                                               ; preds = %10, %7, %1
  %12 = load ptr, ptr %3, align 8
  %13 = getelementptr inbounds %struct.Vec_Vec_t_, ptr %12, i32 0, i32 1
  store i32 0, ptr %13, align 4
  %14 = load i32, ptr %2, align 4
  %15 = load ptr, ptr %3, align 8
  %16 = getelementptr inbounds %struct.Vec_Vec_t_, ptr %15, i32 0, i32 0
  store i32 %14, ptr %16, align 8
  %17 = load ptr, ptr %3, align 8
  %18 = getelementptr inbounds %struct.Vec_Vec_t_, ptr %17, i32 0, i32 0
  %19 = load i32, ptr %18, align 8
  %20 = icmp ne i32 %19, 0
  br i1 %20, label %21, label %28

21:                                               ; preds = %11
  %22 = load ptr, ptr %3, align 8
  %23 = getelementptr inbounds %struct.Vec_Vec_t_, ptr %22, i32 0, i32 0
  %24 = load i32, ptr %23, align 8
  %25 = sext i32 %24 to i64
  %26 = mul i64 8, %25
  %27 = call noalias ptr @malloc(i64 noundef %26) #6
  br label %29

28:                                               ; preds = %11
  br label %29

29:                                               ; preds = %28, %21
  %30 = phi ptr [ %27, %21 ], [ null, %28 ]
  %31 = load ptr, ptr %3, align 8
  %32 = getelementptr inbounds %struct.Vec_Vec_t_, ptr %31, i32 0, i32 2
  store ptr %30, ptr %32, align 8
  %33 = load ptr, ptr %3, align 8
  ret ptr %33
}

; Function Attrs: nounwind uwtable
define internal ptr @Vec_PtrAlloc(i32 noundef %0) #0 {
  %2 = alloca i32, align 4
  %3 = alloca ptr, align 8
  store i32 %0, ptr %2, align 4
  %4 = call noalias ptr @malloc(i64 noundef 16) #6
  store ptr %4, ptr %3, align 8
  %5 = load i32, ptr %2, align 4
  %6 = icmp sgt i32 %5, 0
  br i1 %6, label %7, label %11

7:                                                ; preds = %1
  %8 = load i32, ptr %2, align 4
  %9 = icmp slt i32 %8, 8
  br i1 %9, label %10, label %11

10:                                               ; preds = %7
  store i32 8, ptr %2, align 4
  br label %11

11:                                               ; preds = %10, %7, %1
  %12 = load ptr, ptr %3, align 8
  %13 = getelementptr inbounds %struct.Vec_Ptr_t_, ptr %12, i32 0, i32 1
  store i32 0, ptr %13, align 4
  %14 = load i32, ptr %2, align 4
  %15 = load ptr, ptr %3, align 8
  %16 = getelementptr inbounds %struct.Vec_Ptr_t_, ptr %15, i32 0, i32 0
  store i32 %14, ptr %16, align 8
  %17 = load ptr, ptr %3, align 8
  %18 = getelementptr inbounds %struct.Vec_Ptr_t_, ptr %17, i32 0, i32 0
  %19 = load i32, ptr %18, align 8
  %20 = icmp ne i32 %19, 0
  br i1 %20, label %21, label %28

21:                                               ; preds = %11
  %22 = load ptr, ptr %3, align 8
  %23 = getelementptr inbounds %struct.Vec_Ptr_t_, ptr %22, i32 0, i32 0
  %24 = load i32, ptr %23, align 8
  %25 = sext i32 %24 to i64
  %26 = mul i64 8, %25
  %27 = call noalias ptr @malloc(i64 noundef %26) #6
  br label %29

28:                                               ; preds = %11
  br label %29

29:                                               ; preds = %28, %21
  %30 = phi ptr [ %27, %21 ], [ null, %28 ]
  %31 = load ptr, ptr %3, align 8
  %32 = getelementptr inbounds %struct.Vec_Ptr_t_, ptr %31, i32 0, i32 2
  store ptr %30, ptr %32, align 8
  %33 = load ptr, ptr %3, align 8
  ret ptr %33
}

; Function Attrs: nounwind uwtable
define internal i32 @Abc_PrimeCudd(i32 noundef %0) #0 {
  %2 = alloca i32, align 4
  %3 = alloca i32, align 4
  %4 = alloca i32, align 4
  store i32 %0, ptr %2, align 4
  %5 = load i32, ptr %2, align 4
  %6 = add i32 %5, -1
  store i32 %6, ptr %2, align 4
  br label %7

7:                                                ; preds = %32, %1
  %8 = load i32, ptr %2, align 4
  %9 = add i32 %8, 1
  store i32 %9, ptr %2, align 4
  %10 = load i32, ptr %2, align 4
  %11 = and i32 %10, 1
  %12 = icmp ne i32 %11, 0
  br i1 %12, label %13, label %30

13:                                               ; preds = %7
  store i32 1, ptr %4, align 4
  store i32 3, ptr %3, align 4
  br label %14

14:                                               ; preds = %26, %13
  %15 = load i32, ptr %3, align 4
  %16 = load i32, ptr %3, align 4
  %17 = mul nsw i32 %15, %16
  %18 = load i32, ptr %2, align 4
  %19 = icmp ule i32 %17, %18
  br i1 %19, label %20, label %29

20:                                               ; preds = %14
  %21 = load i32, ptr %2, align 4
  %22 = load i32, ptr %3, align 4
  %23 = urem i32 %21, %22
  %24 = icmp eq i32 %23, 0
  br i1 %24, label %25, label %26

25:                                               ; preds = %20
  store i32 0, ptr %4, align 4
  br label %29

26:                                               ; preds = %20
  %27 = load i32, ptr %3, align 4
  %28 = add nsw i32 %27, 2
  store i32 %28, ptr %3, align 4
  br label %14, !llvm.loop !4

29:                                               ; preds = %25, %14
  br label %31

30:                                               ; preds = %7
  store i32 0, ptr %4, align 4
  br label %31

31:                                               ; preds = %30, %29
  br label %32

32:                                               ; preds = %31
  %33 = load i32, ptr %4, align 4
  %34 = icmp ne i32 %33, 0
  %35 = xor i1 %34, true
  br i1 %35, label %7, label %36, !llvm.loop !6

36:                                               ; preds = %32
  %37 = load i32, ptr %2, align 4
  ret i32 %37
}

; Function Attrs: nounwind uwtable
define ptr @Abc_AigAlloc(ptr noundef %0) #0 {
  %2 = alloca ptr, align 8
  %3 = alloca ptr, align 8
  store ptr %0, ptr %2, align 8
  %4 = call noalias ptr @malloc(i64 noundef 104) #6
  store ptr %4, ptr %3, align 8
  %5 = load ptr, ptr %3, align 8
  call void @llvm.memset.p0.i64(ptr align 8 %5, i8 0, i64 104, i1 false)
  %6 = call i32 @Abc_PrimeCudd(i32 noundef 10000)
  %7 = load ptr, ptr %3, align 8
  %8 = getelementptr inbounds %struct.Abc_Aig_t_, ptr %7, i32 0, i32 3
  store i32 %6, ptr %8, align 8
  %9 = load ptr, ptr %3, align 8
  %10 = getelementptr inbounds %struct.Abc_Aig_t_, ptr %9, i32 0, i32 3
  %11 = load i32, ptr %10, align 8
  %12 = sext i32 %11 to i64
  %13 = mul i64 8, %12
  %14 = call noalias ptr @malloc(i64 noundef %13) #6
  %15 = load ptr, ptr %3, align 8
  %16 = getelementptr inbounds %struct.Abc_Aig_t_, ptr %15, i32 0, i32 2
  store ptr %14, ptr %16, align 8
  %17 = load ptr, ptr %3, align 8
  %18 = getelementptr inbounds %struct.Abc_Aig_t_, ptr %17, i32 0, i32 2
  %19 = load ptr, ptr %18, align 8
  %20 = load ptr, ptr %3, align 8
  %21 = getelementptr inbounds %struct.Abc_Aig_t_, ptr %20, i32 0, i32 3
  %22 = load i32, ptr %21, align 8
  %23 = sext i32 %22 to i64
  %24 = mul i64 8, %23
  call void @llvm.memset.p0.i64(ptr align 8 %19, i8 0, i64 %24, i1 false)
  %25 = call ptr @Vec_PtrAlloc(i32 noundef 100)
  %26 = load ptr, ptr %3, align 8
  %27 = getelementptr inbounds %struct.Abc_Aig_t_, ptr %26, i32 0, i32 5
  store ptr %25, ptr %27, align 8
  %28 = call ptr @Vec_VecAlloc(i32 noundef 100)
  %29 = load ptr, ptr %3, align 8
  %30 = getelementptr inbounds %struct.Abc_Aig_t_, ptr %29, i32 0, i32 8
  store ptr %28, ptr %30, align 8
  %31 = call ptr @Vec_VecAlloc(i32 noundef 100)
  %32 = load ptr, ptr %3, align 8
  %33 = getelementptr inbounds %struct.Abc_Aig_t_, ptr %32, i32 0, i32 9
  store ptr %31, ptr %33, align 8
  %34 = call ptr @Vec_PtrAlloc(i32 noundef 100)
  %35 = load ptr, ptr %3, align 8
  %36 = getelementptr inbounds %struct.Abc_Aig_t_, ptr %35, i32 0, i32 6
  store ptr %34, ptr %36, align 8
  %37 = call ptr @Vec_PtrAlloc(i32 noundef 100)
  %38 = load ptr, ptr %3, align 8
  %39 = getelementptr inbounds %struct.Abc_Aig_t_, ptr %38, i32 0, i32 7
  store ptr %37, ptr %39, align 8
  %40 = load ptr, ptr %2, align 8
  %41 = call ptr @Abc_NtkCreateObj(ptr noundef %40, i32 noundef 7)
  %42 = load ptr, ptr %3, align 8
  %43 = getelementptr inbounds %struct.Abc_Aig_t_, ptr %42, i32 0, i32 1
  store ptr %41, ptr %43, align 8
  %44 = load ptr, ptr %3, align 8
  %45 = getelementptr inbounds %struct.Abc_Aig_t_, ptr %44, i32 0, i32 1
  %46 = load ptr, ptr %45, align 8
  %47 = getelementptr inbounds %struct.Abc_Obj_t_, ptr %46, i32 0, i32 3
  %48 = load i32, ptr %47, align 4
  %49 = and i32 %48, -16
  %50 = or i32 %49, 1
  store i32 %50, ptr %47, align 4
  %51 = load ptr, ptr %3, align 8
  %52 = getelementptr inbounds %struct.Abc_Aig_t_, ptr %51, i32 0, i32 1
  %53 = load ptr, ptr %52, align 8
  %54 = getelementptr inbounds %struct.Abc_Obj_t_, ptr %53, i32 0, i32 3
  %55 = load i32, ptr %54, align 4
  %56 = and i32 %55, -129
  %57 = or i32 %56, 128
  store i32 %57, ptr %54, align 4
  %58 = load ptr, ptr %2, align 8
  %59 = getelementptr inbounds %struct.Abc_Ntk_t_, ptr %58, i32 0, i32 13
  %60 = getelementptr inbounds [11 x i32], ptr %59, i64 0, i64 7
  %61 = load i32, ptr %60, align 4
  %62 = add nsw i32 %61, -1
  store i32 %62, ptr %60, align 4
  %63 = load ptr, ptr %2, align 8
  %64 = load ptr, ptr %3, align 8
  %65 = getelementptr inbounds %struct.Abc_Aig_t_, ptr %64, i32 0, i32 0
  store ptr %63, ptr %65, align 8
  %66 = load ptr, ptr %3, align 8
  ret ptr %66
}