; Function Attrs: nounwind uwtable
define noalias noundef ptr @Abc_AigAlloc(ptr noundef %0) local_unnamed_addr #0 {
  %calloc23 = tail call dereferenceable_or_null(104) ptr @calloc(i64 1, i64 104)
  br label %.loopexit.i

.loopexit.i:                                      ; preds = %.loopexit.i.backedge, %1
  %.012.i = phi i32 [ 9999, %1 ], [ %2, %.loopexit.i.backedge ]
  %2 = add i32 %.012.i, 1
  %3 = and i32 %.012.i, 1
  %.not.not.i = icmp eq i32 %3, 0
  br i1 %.not.not.i, label %.preheader.i, label %.loopexit.i.backedge

.loopexit.i.backedge:                             ; preds = %.lr.ph.i, %.loopexit.i
  br label %.loopexit.i, !llvm.loop !4

.preheader.i:                                     ; preds = %.loopexit.i
  %.not15.i = icmp ult i32 %2, 9
  br i1 %.not15.i, label %Abc_PrimeCudd.exit, label %.lr.ph.i

4:                                                ; preds = %.lr.ph.i
  %5 = add nuw nsw i32 %.01116.i, 2
  %6 = mul nuw nsw i32 %5, %5
  %.not.i = icmp ugt i32 %6, %2
  br i1 %.not.i, label %Abc_PrimeCudd.exit, label %.lr.ph.i, !llvm.loop !6

.lr.ph.i:                                         ; preds = %.preheader.i, %4
  %.01116.i = phi i32 [ %5, %4 ], [ 3, %.preheader.i ]
  %7 = urem i32 %2, %.01116.i
  %8 = icmp eq i32 %7, 0
  br i1 %8, label %.loopexit.i.backedge, label %4, !llvm.loop !4

Abc_PrimeCudd.exit:                               ; preds = %.preheader.i, %4
  %9 = getelementptr inbounds nuw i8, ptr %calloc23, i64 24
  store i32 %2, ptr %9, align 8
  %10 = sext i32 %2 to i64
  %11 = shl nsw i64 %10, 3
  %calloc = tail call ptr @calloc(i64 1, i64 %11)
  %12 = getelementptr inbounds nuw i8, ptr %calloc23, i64 16
  store ptr %calloc, ptr %12, align 8
  %13 = tail call noalias dereferenceable_or_null(16) ptr @malloc(i64 noundef 16) #20
  %14 = getelementptr inbounds nuw i8, ptr %13, i64 4
  store i32 0, ptr %14, align 4
  store i32 100, ptr %13, align 8
  %15 = tail call noalias dereferenceable_or_null(800) ptr @malloc(i64 noundef 800) #20
  %16 = getelementptr inbounds nuw i8, ptr %13, i64 8
  store ptr %15, ptr %16, align 8
  %17 = getelementptr inbounds nuw i8, ptr %calloc23, i64 32
  store ptr %13, ptr %17, align 8
  %18 = tail call noalias dereferenceable_or_null(16) ptr @malloc(i64 noundef 16) #20
  %19 = getelementptr inbounds nuw i8, ptr %18, i64 4
  store i32 0, ptr %19, align 4
  store i32 100, ptr %18, align 8
  %20 = tail call noalias dereferenceable_or_null(800) ptr @malloc(i64 noundef 800) #20
  %21 = getelementptr inbounds nuw i8, ptr %18, i64 8
  store ptr %20, ptr %21, align 8
  %22 = getelementptr inbounds nuw i8, ptr %calloc23, i64 56
  store ptr %18, ptr %22, align 8
  %23 = tail call noalias dereferenceable_or_null(16) ptr @malloc(i64 noundef 16) #20
  %24 = getelementptr inbounds nuw i8, ptr %23, i64 4
  store i32 0, ptr %24, align 4
  store i32 100, ptr %23, align 8
  %25 = tail call noalias dereferenceable_or_null(800) ptr @malloc(i64 noundef 800) #20
  %26 = getelementptr inbounds nuw i8, ptr %23, i64 8
  store ptr %25, ptr %26, align 8
  %27 = getelementptr inbounds nuw i8, ptr %calloc23, i64 64
  store ptr %23, ptr %27, align 8
  %28 = tail call noalias dereferenceable_or_null(16) ptr @malloc(i64 noundef 16) #20
  %29 = getelementptr inbounds nuw i8, ptr %28, i64 4
  store i32 0, ptr %29, align 4
  store i32 100, ptr %28, align 8
  %30 = tail call noalias dereferenceable_or_null(800) ptr @malloc(i64 noundef 800) #20
  %31 = getelementptr inbounds nuw i8, ptr %28, i64 8
  store ptr %30, ptr %31, align 8
  %32 = getelementptr inbounds nuw i8, ptr %calloc23, i64 40
  store ptr %28, ptr %32, align 8
  %33 = tail call noalias dereferenceable_or_null(16) ptr @malloc(i64 noundef 16) #20
  %34 = getelementptr inbounds nuw i8, ptr %33, i64 4
  store i32 0, ptr %34, align 4
  store i32 100, ptr %33, align 8
  %35 = tail call noalias dereferenceable_or_null(800) ptr @malloc(i64 noundef 800) #20
  %36 = getelementptr inbounds nuw i8, ptr %33, i64 8
  store ptr %35, ptr %36, align 8
  %37 = getelementptr inbounds nuw i8, ptr %calloc23, i64 48
  store ptr %33, ptr %37, align 8
  %38 = tail call ptr @Abc_NtkCreateObj(ptr noundef %0, i32 noundef 7) #21
  %39 = getelementptr inbounds nuw i8, ptr %calloc23, i64 8
  store ptr %38, ptr %39, align 8
  %40 = getelementptr inbounds nuw i8, ptr %38, i64 20
  %41 = load i32, ptr %40, align 4
  %42 = and i32 %41, -144
  %43 = or disjoint i32 %42, 129
  store i32 %43, ptr %40, align 4
  %44 = getelementptr inbounds nuw i8, ptr %0, i64 124
  %45 = load i32, ptr %44, align 4
  %46 = add nsw i32 %45, -1
  store i32 %46, ptr %44, align 4
  store ptr %0, ptr %calloc23, align 8
  ret ptr %calloc23
}